ARM GAS  C:\Users\msldk\AppData\Local\Temp\ccMNIkNg.s 			page 1


   1              		.syntax unified
   2              		.cpu cortex-m3
   3              		.fpu softvfp
   4              		.eabi_attribute 20, 1
   5              		.eabi_attribute 21, 1
   6              		.eabi_attribute 23, 3
   7              		.eabi_attribute 24, 1
   8              		.eabi_attribute 25, 1
   9              		.eabi_attribute 26, 1
  10              		.eabi_attribute 30, 1
  11              		.eabi_attribute 34, 1
  12              		.eabi_attribute 18, 4
  13              		.thumb
  14              		.syntax unified
  15              		.file	"main.c"
  16              		.text
  17              	.Ltext0:
  18              		.cfi_sections	.debug_frame
  19              		.global	__aeabi_i2f
  20              		.global	__aeabi_fmul
  21              		.global	__aeabi_fsub
  22              		.global	__aeabi_f2d
  23              		.section	.text.main,"ax",%progbits
  24              		.align	2
  25              		.global	main
  26              		.thumb
  27              		.thumb_func
  28              		.type	main, %function
  29              	main:
  30              	.LFB64:
  31              		.file 1 "main.c"
   1:main.c        **** /* ========================================
   2:main.c        ****  *
   3:main.c        ****  * Copyright YOUR COMPANY, THE YEAR
   4:main.c        ****  * All Rights Reserved
   5:main.c        ****  * UNPUBLISHED, LICENSED SOFTWARE.
   6:main.c        ****  *
   7:main.c        ****  * CONFIDENTIAL AND PROPRIETARY INFORMATION
   8:main.c        ****  * WHICH IS THE PROPERTY OF your company.
   9:main.c        ****  *
  10:main.c        ****  * ========================================
  11:main.c        **** */
  12:main.c        **** #include "project.h"
  13:main.c        **** #include <stdio.h>
  14:main.c        **** 
  15:main.c        **** CY_ISR_PROTO(ISR_UART_rx_handler);
  16:main.c        **** void handleByteReceived(uint8_t byteReceived);
  17:main.c        **** 
  18:main.c        **** // Global state variable for switching between functionality in main for loop
  19:main.c        **** uint8_t state = 0; 
  20:main.c        **** int offset = 184; // offset after preload of 204g to get to linear area
  21:main.c        **** float koeficent = 0.549; // The hældning from the graph after making measurement
  22:main.c        **** 
  23:main.c        **** int main(void)
  24:main.c        **** {
  32              		.loc 1 24 0
  33              		.cfi_startproc
ARM GAS  C:\Users\msldk\AppData\Local\Temp\ccMNIkNg.s 			page 2


  34              		@ args = 0, pretend = 0, frame = 256
  35              		@ frame_needed = 0, uses_anonymous_args = 0
  36 0000 30B5     		push	{r4, r5, lr}
  37              		.cfi_def_cfa_offset 12
  38              		.cfi_offset 4, -12
  39              		.cfi_offset 5, -8
  40              		.cfi_offset 14, -4
  41 0002 C3B0     		sub	sp, sp, #268
  42              		.cfi_def_cfa_offset 280
  25:main.c        ****     CyGlobalIntEnable; /* Enable global interrupts. */
  43              		.loc 1 25 0
  44              		.syntax unified
  45              	@ 25 "main.c" 1
  46 0004 62B6     		CPSIE   i
  47              	@ 0 "" 2
  26:main.c        ****     char uartBuffer[256];
  27:main.c        **** 
  28:main.c        ****     /* Place your initialization/startup code here (e.g. MyInst_Start()) */
  29:main.c        ****     isr_uart_rx_StartEx(ISR_UART_rx_handler);
  48              		.loc 1 29 0
  49              		.thumb
  50              		.syntax unified
  51 0006 1B48     		ldr	r0, .L7
  52 0008 FFF7FEFF 		bl	isr_uart_rx_StartEx
  53              	.LVL0:
  30:main.c        ****     UART_1_Start();
  54              		.loc 1 30 0
  55 000c FFF7FEFF 		bl	UART_1_Start
  56              	.LVL1:
  31:main.c        ****     ADC_SAR_1_Start();
  57              		.loc 1 31 0
  58 0010 FFF7FEFF 		bl	ADC_SAR_1_Start
  59              	.LVL2:
  32:main.c        ****     ADC_SAR_1_StartConvert();
  60              		.loc 1 32 0
  61 0014 FFF7FEFF 		bl	ADC_SAR_1_StartConvert
  62              	.LVL3:
  33:main.c        ****     
  34:main.c        ****     UART_1_PutString("Scale application started\r\n");
  63              		.loc 1 34 0
  64 0018 1748     		ldr	r0, .L7+4
  65 001a FFF7FEFF 		bl	UART_1_PutString
  66              	.LVL4:
  67              	.L2:
  35:main.c        **** 
  36:main.c        ****     for(;;)
  37:main.c        ****     {
  38:main.c        ****         switch(state)
  68              		.loc 1 38 0
  69 001e 174B     		ldr	r3, .L7+8
  70 0020 1B78     		ldrb	r3, [r3]	@ zero_extendqisi2
  71 0022 012B     		cmp	r3, #1
  72 0024 FBD1     		bne	.L2
  39:main.c        ****         {
  40:main.c        ****         case 1:
  41:main.c        ****             {
  42:main.c        ****                 /* Place your application code here. */
ARM GAS  C:\Users\msldk\AppData\Local\Temp\ccMNIkNg.s 			page 3


  43:main.c        ****                 if (ADC_SAR_1_IsEndConversion(ADC_SAR_1_WAIT_FOR_RESULT))
  73              		.loc 1 43 0
  74 0026 0020     		movs	r0, #0
  75 0028 FFF7FEFF 		bl	ADC_SAR_1_IsEndConversion
  76              	.LVL5:
  77 002c E8B1     		cbz	r0, .L4
  78              	.LBB2:
  44:main.c        ****                 {
  45:main.c        ****                     uint16_t adcValue = ADC_SAR_1_GetResult16();
  79              		.loc 1 45 0
  80 002e FFF7FEFF 		bl	ADC_SAR_1_GetResult16
  81              	.LVL6:
  46:main.c        ****                     float result = (adcValue * koeficent)- offset;
  82              		.loc 1 46 0
  83 0032 80B2     		uxth	r0, r0
  84 0034 FFF7FEFF 		bl	__aeabi_i2f
  85              	.LVL7:
  86 0038 114C     		ldr	r4, .L7+12
  87 003a 2168     		ldr	r1, [r4]	@ float
  88 003c FFF7FEFF 		bl	__aeabi_fmul
  89              	.LVL8:
  90 0040 0546     		mov	r5, r0
  91 0042 6068     		ldr	r0, [r4, #4]
  92 0044 FFF7FEFF 		bl	__aeabi_i2f
  93              	.LVL9:
  94 0048 0146     		mov	r1, r0
  95 004a 2846     		mov	r0, r5
  96 004c FFF7FEFF 		bl	__aeabi_fsub
  97              	.LVL10:
  47:main.c        ****                                     
  48:main.c        ****                     snprintf(uartBuffer, sizeof(uartBuffer), "ADC result: %f \r\n", result);
  98              		.loc 1 48 0
  99 0050 FFF7FEFF 		bl	__aeabi_f2d
 100              	.LVL11:
 101 0054 CDE90001 		strd	r0, [sp]
 102 0058 0A4A     		ldr	r2, .L7+16
 103 005a 4FF48071 		mov	r1, #256
 104 005e 02A8     		add	r0, sp, #8
 105 0060 FFF7FEFF 		bl	snprintf
 106              	.LVL12:
  49:main.c        ****                     UART_1_PutString(uartBuffer);
 107              		.loc 1 49 0
 108 0064 02A8     		add	r0, sp, #8
 109 0066 FFF7FEFF 		bl	UART_1_PutString
 110              	.LVL13:
 111              	.L4:
 112              	.LBE2:
  50:main.c        ****                 }
  51:main.c        ****                 CyDelay(1000);
 113              		.loc 1 51 0
 114 006a 4FF47A70 		mov	r0, #1000
 115 006e FFF7FEFF 		bl	CyDelay
 116              	.LVL14:
  52:main.c        ****             }
  53:main.c        ****             break;
 117              		.loc 1 53 0
 118 0072 D4E7     		b	.L2
ARM GAS  C:\Users\msldk\AppData\Local\Temp\ccMNIkNg.s 			page 4


 119              	.L8:
 120              		.align	2
 121              	.L7:
 122 0074 00000000 		.word	ISR_UART_rx_handler
 123 0078 00000000 		.word	.LC0
 124 007c 00000000 		.word	.LANCHOR0
 125 0080 00000000 		.word	.LANCHOR1
 126 0084 1C000000 		.word	.LC1
 127              		.cfi_endproc
 128              	.LFE64:
 129              		.size	main, .-main
 130              		.section	.text.handleByteReceived,"ax",%progbits
 131              		.align	2
 132              		.global	handleByteReceived
 133              		.thumb
 134              		.thumb_func
 135              		.type	handleByteReceived, %function
 136              	handleByteReceived:
 137              	.LFB66:
  54:main.c        ****         case 2:
  55:main.c        ****             {
  56:main.c        ****                 // do nothing   
  57:main.c        ****             }
  58:main.c        ****             break;
  59:main.c        ****             
  60:main.c        ****         default: 
  61:main.c        ****             {} 
  62:main.c        ****             break;
  63:main.c        ****         }
  64:main.c        ****     }
  65:main.c        **** }
  66:main.c        **** 
  67:main.c        **** CY_ISR(ISR_UART_rx_handler)
  68:main.c        **** {
  69:main.c        ****     uint8_t bytesToRead = UART_1_GetRxBufferSize();
  70:main.c        ****     while (bytesToRead > 0)
  71:main.c        ****     {
  72:main.c        ****         uint8_t byteReceived = UART_1_ReadRxData();
  73:main.c        ****         UART_1_WriteTxData(byteReceived); // echo back
  74:main.c        ****         
  75:main.c        ****         handleByteReceived(byteReceived);
  76:main.c        ****         
  77:main.c        ****         bytesToRead--;
  78:main.c        ****     }
  79:main.c        **** }
  80:main.c        **** 
  81:main.c        **** void handleByteReceived(uint8_t byteReceived)
  82:main.c        **** {
 138              		.loc 1 82 0
 139              		.cfi_startproc
 140              		@ args = 0, pretend = 0, frame = 0
 141              		@ frame_needed = 0, uses_anonymous_args = 0
 142              		@ link register save eliminated.
 143              	.LVL15:
  83:main.c        ****     switch(byteReceived)
 144              		.loc 1 83 0
 145 0000 7128     		cmp	r0, #113
ARM GAS  C:\Users\msldk\AppData\Local\Temp\ccMNIkNg.s 			page 5


 146 0002 02D0     		beq	.L11
 147 0004 7728     		cmp	r0, #119
 148 0006 04D0     		beq	.L12
 149 0008 7047     		bx	lr
 150              	.L11:
  84:main.c        ****     {
  85:main.c        ****         case 'q' :
  86:main.c        ****             {
  87:main.c        ****                 state = 1;
 151              		.loc 1 87 0
 152 000a 0122     		movs	r2, #1
 153 000c 034B     		ldr	r3, .L13
 154 000e 1A70     		strb	r2, [r3]
  88:main.c        ****             }
  89:main.c        ****             break;
 155              		.loc 1 89 0
 156 0010 7047     		bx	lr
 157              	.L12:
  90:main.c        ****         case 'w' :
  91:main.c        ****             {
  92:main.c        ****                 state = 0;
 158              		.loc 1 92 0
 159 0012 0022     		movs	r2, #0
 160 0014 014B     		ldr	r3, .L13
 161 0016 1A70     		strb	r2, [r3]
 162 0018 7047     		bx	lr
 163              	.L14:
 164 001a 00BF     		.align	2
 165              	.L13:
 166 001c 00000000 		.word	.LANCHOR0
 167              		.cfi_endproc
 168              	.LFE66:
 169              		.size	handleByteReceived, .-handleByteReceived
 170              		.section	.text.ISR_UART_rx_handler,"ax",%progbits
 171              		.align	2
 172              		.global	ISR_UART_rx_handler
 173              		.thumb
 174              		.thumb_func
 175              		.type	ISR_UART_rx_handler, %function
 176              	ISR_UART_rx_handler:
 177              	.LFB65:
  68:main.c        ****     uint8_t bytesToRead = UART_1_GetRxBufferSize();
 178              		.loc 1 68 0
 179              		.cfi_startproc
 180              		@ args = 0, pretend = 0, frame = 0
 181              		@ frame_needed = 0, uses_anonymous_args = 0
 182 0000 38B5     		push	{r3, r4, r5, lr}
 183              		.cfi_def_cfa_offset 16
 184              		.cfi_offset 3, -16
 185              		.cfi_offset 4, -12
 186              		.cfi_offset 5, -8
 187              		.cfi_offset 14, -4
  69:main.c        ****     while (bytesToRead > 0)
 188              		.loc 1 69 0
 189 0002 FFF7FEFF 		bl	UART_1_GetRxBufferSize
 190              	.LVL16:
 191 0006 0446     		mov	r4, r0
ARM GAS  C:\Users\msldk\AppData\Local\Temp\ccMNIkNg.s 			page 6


 192              	.LVL17:
  70:main.c        ****     {
 193              		.loc 1 70 0
 194 0008 09E0     		b	.L16
 195              	.L17:
 196              	.LBB3:
  72:main.c        ****         UART_1_WriteTxData(byteReceived); // echo back
 197              		.loc 1 72 0
 198 000a FFF7FEFF 		bl	UART_1_ReadRxData
 199              	.LVL18:
 200 000e 0546     		mov	r5, r0
 201              	.LVL19:
  73:main.c        ****         
 202              		.loc 1 73 0
 203 0010 FFF7FEFF 		bl	UART_1_WriteTxData
 204              	.LVL20:
  75:main.c        ****         
 205              		.loc 1 75 0
 206 0014 2846     		mov	r0, r5
 207 0016 FFF7FEFF 		bl	handleByteReceived
 208              	.LVL21:
  77:main.c        ****     }
 209              		.loc 1 77 0
 210 001a 013C     		subs	r4, r4, #1
 211              	.LVL22:
 212 001c E4B2     		uxtb	r4, r4
 213              	.LVL23:
 214              	.L16:
 215              	.LBE3:
  70:main.c        ****     {
 216              		.loc 1 70 0
 217 001e 002C     		cmp	r4, #0
 218 0020 F3D1     		bne	.L17
  79:main.c        **** 
 219              		.loc 1 79 0
 220 0022 38BD     		pop	{r3, r4, r5, pc}
 221              		.cfi_endproc
 222              	.LFE65:
 223              		.size	ISR_UART_rx_handler, .-ISR_UART_rx_handler
 224              		.global	koeficent
 225              		.global	offset
 226              		.global	state
 227              		.data
 228              		.align	2
 229              		.set	.LANCHOR1,. + 0
 230              		.type	koeficent, %object
 231              		.size	koeficent, 4
 232              	koeficent:
 233 0000 448B0C3F 		.word	1057786692
 234              		.type	offset, %object
 235              		.size	offset, 4
 236              	offset:
 237 0004 B8000000 		.word	184
 238              		.section	.rodata.str1.4,"aMS",%progbits,1
 239              		.align	2
 240              	.LC0:
 241 0000 5363616C 		.ascii	"Scale application started\015\012\000"
ARM GAS  C:\Users\msldk\AppData\Local\Temp\ccMNIkNg.s 			page 7


 241      65206170 
 241      706C6963 
 241      6174696F 
 241      6E207374 
 242              	.LC1:
 243 001c 41444320 		.ascii	"ADC result: %f \015\012\000"
 243      72657375 
 243      6C743A20 
 243      2566200D 
 243      0A00
 244              		.bss
 245              		.set	.LANCHOR0,. + 0
 246              		.type	state, %object
 247              		.size	state, 1
 248              	state:
 249 0000 00       		.space	1
 250              		.text
 251              	.Letext0:
 252              		.file 2 "c:\\program files (x86)\\cypress\\psoc creator\\4.4\\psoc creator\\import\\gnu\\arm\\5.4.
 253              		.file 3 "c:\\program files (x86)\\cypress\\psoc creator\\4.4\\psoc creator\\import\\gnu\\arm\\5.4.
 254              		.file 4 "Generated_Source\\PSoC5/core_cm3.h"
 255              		.file 5 "Generated_Source\\PSoC5/ADC_SAR_1.h"
 256              		.file 6 "c:\\program files (x86)\\cypress\\psoc creator\\4.4\\psoc creator\\import\\gnu\\arm\\5.4.
 257              		.file 7 "Generated_Source\\PSoC5/UART_1.h"
 258              		.file 8 "Generated_Source\\PSoC5/isr_uart_rx.h"
 259              		.file 9 "Generated_Source\\PSoC5/CyLib.h"